target datalayout = "e-m:e-p270:32:32-p271:32:32-p272:64:64-i64:64-i128:128-f80:128-n8:16:32:64-S128"
target triple = "x86_64-pc-linux-gnu"

%union.pthread_mutex_t = type { %struct.__pthread_mutex_s }
%struct.__pthread_mutex_s = type { i32, i32, i32, i32, i32, i16, i16, %struct.__pthread_internal_list }
%struct.__pthread_internal_list = type { ptr, ptr }
%struct.tMPI_Atomic = type { i32, [60 x i8] }
%struct.tMPI_Thread_cond_t = type { %struct.tMPI_Atomic, ptr }
%struct.tMPI_Thread_cond = type { %union.pthread_cond_t }
%union.pthread_cond_t = type { %struct.__pthread_cond_s }
%struct.__pthread_cond_s = type { %union.__atomic_wide_counter, %union.__atomic_wide_counter, [2 x i32], [2 x i32], i32, i32, [2 x i32] }
%union.__atomic_wide_counter = type { i64 }

@_ZL9cond_init = internal global %union.pthread_mutex_t zeroinitializer, align 8

; Function Attrs: mustprogress nounwind uwtable
define internal noundef i32 @_ZL26tMPI_Thread_cond_init_onceP18tMPI_Thread_cond_t(ptr noundef %0) #0 {
  %2 = alloca i32, align 4
  %3 = alloca ptr, align 8
  %4 = alloca i32, align 4
  store ptr %0, ptr %3, align 8
  store i32 0, ptr %4, align 4
  %5 = call i32 @pthread_mutex_lock(ptr noundef @_ZL9cond_init) #8
  store i32 %5, ptr %4, align 4
  %6 = load i32, ptr %4, align 4
  %7 = icmp ne i32 %6, 0
  br i1 %7, label %8, label %10

8:                                                ; preds = %1
  %9 = load i32, ptr %4, align 4
  store i32 %9, ptr %2, align 4
  br label %40

10:                                               ; preds = %1
  %11 = load ptr, ptr %3, align 8
  %12 = getelementptr inbounds %struct.tMPI_Thread_cond_t, ptr %11, i32 0, i32 1
  %13 = load ptr, ptr %12, align 8
  %14 = icmp eq ptr %13, null
  br i1 %14, label %15, label %34

15:                                               ; preds = %10
  %16 = call noalias ptr @malloc(i64 noundef 48) #9
  %17 = load ptr, ptr %3, align 8
  %18 = getelementptr inbounds %struct.tMPI_Thread_cond_t, ptr %17, i32 0, i32 1
  store ptr %16, ptr %18, align 8
  %19 = load ptr, ptr %3, align 8
  %20 = getelementptr inbounds %struct.tMPI_Thread_cond_t, ptr %19, i32 0, i32 1
  %21 = load ptr, ptr %20, align 8
  %22 = icmp eq ptr %21, null
  br i1 %22, label %23, label %24

23:                                               ; preds = %15
  store i32 12, ptr %4, align 4
  br label %37

24:                                               ; preds = %15
  %25 = load ptr, ptr %3, align 8
  %26 = getelementptr inbounds %struct.tMPI_Thread_cond_t, ptr %25, i32 0, i32 1
  %27 = load ptr, ptr %26, align 8
  %28 = getelementptr inbounds %struct.tMPI_Thread_cond, ptr %27, i32 0, i32 0
  %29 = call i32 @pthread_cond_init(ptr noundef %28, ptr noundef null) #8
  store i32 %29, ptr %4, align 4
  %30 = load i32, ptr %4, align 4
  %31 = icmp ne i32 %30, 0
  br i1 %31, label %32, label %33

32:                                               ; preds = %24
  br label %37

33:                                               ; preds = %24
  br label %34

34:                                               ; preds = %33, %10
  %35 = call i32 @pthread_mutex_unlock(ptr noundef @_ZL9cond_init) #8
  store i32 %35, ptr %4, align 4
  %36 = load i32, ptr %4, align 4
  store i32 %36, ptr %2, align 4
  br label %40

37:                                               ; preds = %32, %23
  %38 = call i32 @pthread_mutex_unlock(ptr noundef @_ZL9cond_init) #8
  %39 = load i32, ptr %4, align 4
  store i32 %39, ptr %2, align 4
  br label %40

40:                                               ; preds = %37, %34, %8
  %41 = load i32, ptr %2, align 4
  ret i32 %41
}

; Function Attrs: mustprogress uwtable
define noundef i32 @_Z23tMPI_Thread_cond_signalP18tMPI_Thread_cond_t(ptr noundef %0) #2 {
  %2 = alloca i32, align 4
  %3 = alloca ptr, align 8
  %4 = alloca i32, align 4
  store ptr %0, ptr %3, align 8
  %5 = load ptr, ptr %3, align 8
  %6 = getelementptr inbounds %struct.tMPI_Thread_cond_t, ptr %5, i32 0, i32 0
  %7 = getelementptr inbounds %struct.tMPI_Atomic, ptr %6, i32 0, i32 0
  %8 = load i32, ptr %7, align 8
  %9 = icmp eq i32 %8, 0
  br i1 %9, label %10, label %18

10:                                               ; preds = %1
  %11 = load ptr, ptr %3, align 8
  %12 = call noundef i32 @_ZL26tMPI_Thread_cond_init_onceP18tMPI_Thread_cond_t(ptr noundef %11)
  store i32 %12, ptr %4, align 4
  %13 = load i32, ptr %4, align 4
  %14 = icmp ne i32 %13, 0
  br i1 %14, label %15, label %17

15:                                               ; preds = %10
  %16 = load i32, ptr %4, align 4
  store i32 %16, ptr %2, align 4
  br label %25

17:                                               ; preds = %10
  br label %18

18:                                               ; preds = %17, %1
  %19 = load ptr, ptr %3, align 8
  %20 = getelementptr inbounds %struct.tMPI_Thread_cond_t, ptr %19, i32 0, i32 1
  %21 = load ptr, ptr %20, align 8
  %22 = getelementptr inbounds %struct.tMPI_Thread_cond, ptr %21, i32 0, i32 0
  %23 = call i32 @pthread_cond_signal(ptr noundef %22) #8
  store i32 %23, ptr %4, align 4
  %24 = load i32, ptr %4, align 4
  store i32 %24, ptr %2, align 4
  br label %25

25:                                               ; preds = %18, %15
  %26 = load i32, ptr %2, align 4
  ret i32 %26
}